target datalayout = "e-m:e-p270:32:32-p271:32:32-p272:64:64-i64:64-i128:128-f80:128-n8:16:32:64-S128"
target triple = "x86_64-pc-linux-gnu"

%"class.std::vector.0" = type { %"struct.std::_Vector_base.1" }
%"struct.std::_Vector_base.1" = type { %"struct.std::_Vector_base<const Fact *, std::allocator<const Fact *>>::_Vector_impl" }
%"struct.std::_Vector_base<const Fact *, std::allocator<const Fact *>>::_Vector_impl" = type { %"struct.std::_Vector_base<const Fact *, std::allocator<const Fact *>>::_Vector_impl_data" }
%"struct.std::_Vector_base<const Fact *, std::allocator<const Fact *>>::_Vector_impl_data" = type { ptr, ptr, ptr }
%class.FactMgr = type { %"class.std::map", %"class.std::map", %"class.std::map.8", %"class.std::map.8", %"class.std::map.13", %"class.std::map.13", %"class.std::map.18", %"class.std::vector.23", %"class.std::vector.0", ptr }
%"class.std::map" = type { %"class.std::_Rb_tree" }
%"class.std::_Rb_tree" = type { %"struct.std::_Rb_tree<const Statement *, std::pair<const Statement *const, std::vector<const Fact *>>, std::_Select1st<std::pair<const Statement *const, std::vector<const Fact *>>>, std::less<const Statement *>>::_Rb_tree_impl" }
%"struct.std::_Rb_tree<const Statement *, std::pair<const Statement *const, std::vector<const Fact *>>, std::_Select1st<std::pair<const Statement *const, std::vector<const Fact *>>>, std::less<const Statement *>>::_Rb_tree_impl" = type { [8 x i8], %"struct.std::_Rb_tree_header" }
%"struct.std::_Rb_tree_header" = type { %"struct.std::_Rb_tree_node_base", i64 }
%"struct.std::_Rb_tree_node_base" = type { i32, ptr, ptr, ptr }
%"class.std::map.8" = type { %"class.std::_Rb_tree.9" }
%"class.std::_Rb_tree.9" = type { %"struct.std::_Rb_tree<const Statement *, std::pair<const Statement *const, std::vector<Fact *>>, std::_Select1st<std::pair<const Statement *const, std::vector<Fact *>>>, std::less<const Statement *>>::_Rb_tree_impl" }
%"struct.std::_Rb_tree<const Statement *, std::pair<const Statement *const, std::vector<Fact *>>, std::_Select1st<std::pair<const Statement *const, std::vector<Fact *>>>, std::less<const Statement *>>::_Rb_tree_impl" = type { [8 x i8], %"struct.std::_Rb_tree_header" }
%"class.std::map.13" = type { %"class.std::_Rb_tree.14" }
%"class.std::_Rb_tree.14" = type { %"struct.std::_Rb_tree<const Statement *, std::pair<const Statement *const, Effect>, std::_Select1st<std::pair<const Statement *const, Effect>>, std::less<const Statement *>>::_Rb_tree_impl" }
%"struct.std::_Rb_tree<const Statement *, std::pair<const Statement *const, Effect>, std::_Select1st<std::pair<const Statement *const, Effect>>, std::less<const Statement *>>::_Rb_tree_impl" = type { [8 x i8], %"struct.std::_Rb_tree_header" }
%"class.std::map.18" = type { %"class.std::_Rb_tree.19" }
%"class.std::_Rb_tree.19" = type { %"struct.std::_Rb_tree<const Statement *, std::pair<const Statement *const, bool>, std::_Select1st<std::pair<const Statement *const, bool>>, std::less<const Statement *>>::_Rb_tree_impl" }
%"struct.std::_Rb_tree<const Statement *, std::pair<const Statement *const, bool>, std::_Select1st<std::pair<const Statement *const, bool>>, std::less<const Statement *>>::_Rb_tree_impl" = type { [8 x i8], %"struct.std::_Rb_tree_header" }
%"class.std::vector.23" = type { %"struct.std::_Vector_base.24" }
%"struct.std::_Vector_base.24" = type { %"struct.std::_Vector_base<const CFGEdge *, std::allocator<const CFGEdge *>>::_Vector_impl" }
%"struct.std::_Vector_base<const CFGEdge *, std::allocator<const CFGEdge *>>::_Vector_impl" = type { %"struct.std::_Vector_base<const CFGEdge *, std::allocator<const CFGEdge *>>::_Vector_impl_data" }
%"struct.std::_Vector_base<const CFGEdge *, std::allocator<const CFGEdge *>>::_Vector_impl_data" = type { ptr, ptr, ptr }
%"struct.std::_Rb_tree_iterator.78" = type { ptr }
%"struct.std::pair.79" = type <{ ptr, i8, [7 x i8] }>
%"struct.std::_Rb_tree_node" = type { %"struct.std::_Rb_tree_node_base", %"struct.__gnu_cxx::__aligned_membuf" }
%"struct.__gnu_cxx::__aligned_membuf" = type { [16 x i8] }

; Function Attrs: mustprogress nounwind uwtable
define linkonce_odr dso_local noundef ptr @_ZN9__gnu_cxx16__aligned_membufISt4pairIKPK9StatementbEE7_M_addrEv(ptr noundef nonnull align 8 dereferenceable(16) %0) #4 comdat align 2 {
  %2 = alloca ptr, align 8
  store ptr %0, ptr %2, align 8, !tbaa !389
  %3 = load ptr, ptr %2, align 8
  %4 = getelementptr inbounds nuw %"struct.__gnu_cxx::__aligned_membuf", ptr %3, i32 0, i32 0
  ret ptr %4
}

; Function Attrs: mustprogress nounwind uwtable
define linkonce_odr dso_local noundef ptr @_ZN9__gnu_cxx16__aligned_membufISt4pairIKPK9StatementbEE6_M_ptrEv(ptr noundef nonnull align 8 dereferenceable(16) %0) #4 comdat align 2 {
  %2 = alloca ptr, align 8
  store ptr %0, ptr %2, align 8, !tbaa !389
  %3 = load ptr, ptr %2, align 8
  %4 = call noundef ptr @_ZN9__gnu_cxx16__aligned_membufISt4pairIKPK9StatementbEE7_M_addrEv(ptr noundef nonnull align 8 dereferenceable(16) %3) #3
  ret ptr %4
}

; Function Attrs: mustprogress nounwind uwtable
define linkonce_odr dso_local void @_ZNSt17_Rb_tree_iteratorISt4pairIKPK9StatementbEEC2EPSt18_Rb_tree_node_base(ptr noundef nonnull align 8 dereferenceable(8) %0, ptr noundef %1) unnamed_addr #4 comdat align 2 {
  %3 = alloca ptr, align 8
  %4 = alloca ptr, align 8
  store ptr %0, ptr %3, align 8, !tbaa !256
  store ptr %1, ptr %4, align 8, !tbaa !24
  %5 = load ptr, ptr %3, align 8
  %6 = getelementptr inbounds nuw %"struct.std::_Rb_tree_iterator.78", ptr %5, i32 0, i32 0
  %7 = load ptr, ptr %4, align 8, !tbaa !24
  store ptr %7, ptr %6, align 8, !tbaa !258
  ret void
}

; Function Attrs: mustprogress nounwind uwtable
define linkonce_odr dso_local noundef ptr @_ZNSt13_Rb_tree_nodeISt4pairIKPK9StatementbEE9_M_valptrEv(ptr noundef nonnull align 8 dereferenceable(48) %0) #4 comdat align 2 {
  %2 = alloca ptr, align 8
  store ptr %0, ptr %2, align 8, !tbaa !382
  %3 = load ptr, ptr %2, align 8
  %4 = getelementptr inbounds nuw %"struct.std::_Rb_tree_node", ptr %3, i32 0, i32 1
  %5 = call noundef ptr @_ZN9__gnu_cxx16__aligned_membufISt4pairIKPK9StatementbEE6_M_ptrEv(ptr noundef nonnull align 8 dereferenceable(16) %4) #3
  ret ptr %5
}

; Function Attrs: mustprogress nounwind uwtable
define linkonce_odr dso_local ptr @_ZNSt8_Rb_treeIPK9StatementSt4pairIKS2_bESt10_Select1stIS5_ESt4lessIS2_ESaIS5_EE3endEv(ptr noundef nonnull align 8 dereferenceable(48) %0) #4 comdat align 2 {
  %2 = alloca %"struct.std::_Rb_tree_iterator.78", align 8
  %3 = alloca ptr, align 8
  store ptr %0, ptr %3, align 8, !tbaa !364
  %4 = load ptr, ptr %3, align 8
  %5 = getelementptr inbounds nuw %"class.std::_Rb_tree.19", ptr %4, i32 0, i32 0
  %6 = getelementptr inbounds i8, ptr %5, i64 8
  %7 = getelementptr inbounds nuw %"struct.std::_Rb_tree_header", ptr %6, i32 0, i32 0
  call void @_ZNSt17_Rb_tree_iteratorISt4pairIKPK9StatementbEEC2EPSt18_Rb_tree_node_base(ptr noundef nonnull align 8 dereferenceable(8) %2, ptr noundef %7) #3
  %8 = getelementptr inbounds nuw %"struct.std::_Rb_tree_iterator.78", ptr %2, i32 0, i32 0
  %9 = load ptr, ptr %8, align 8
  ret ptr %9
}

; Function Attrs: mustprogress nounwind uwtable
define linkonce_odr dso_local ptr @_ZNSt8_Rb_treeIPK9StatementSt4pairIKS2_bESt10_Select1stIS5_ESt4lessIS2_ESaIS5_EE5beginEv(ptr noundef nonnull align 8 dereferenceable(48) %0) #4 comdat align 2 {
  %2 = alloca %"struct.std::_Rb_tree_iterator.78", align 8
  %3 = alloca ptr, align 8
  store ptr %0, ptr %3, align 8, !tbaa !364
  %4 = load ptr, ptr %3, align 8
  %5 = getelementptr inbounds nuw %"class.std::_Rb_tree.19", ptr %4, i32 0, i32 0
  %6 = getelementptr inbounds i8, ptr %5, i64 8
  %7 = getelementptr inbounds nuw %"struct.std::_Rb_tree_header", ptr %6, i32 0, i32 0
  %8 = getelementptr inbounds nuw %"struct.std::_Rb_tree_node_base", ptr %7, i32 0, i32 2
  %9 = load ptr, ptr %8, align 8, !tbaa !345
  call void @_ZNSt17_Rb_tree_iteratorISt4pairIKPK9StatementbEEC2EPSt18_Rb_tree_node_base(ptr noundef nonnull align 8 dereferenceable(8) %2, ptr noundef %9) #3
  %10 = getelementptr inbounds nuw %"struct.std::_Rb_tree_iterator.78", ptr %2, i32 0, i32 0
  %11 = load ptr, ptr %10, align 8
  ret ptr %11
}

; Function Attrs: mustprogress nounwind uwtable
define linkonce_odr dso_local noundef nonnull align 8 dereferenceable(8) ptr @_ZNSt17_Rb_tree_iteratorISt4pairIKPK9StatementbEEppEv(ptr noundef nonnull align 8 dereferenceable(8) %0) #4 comdat align 2 {
  %2 = alloca ptr, align 8
  store ptr %0, ptr %2, align 8, !tbaa !256
  %3 = load ptr, ptr %2, align 8
  %4 = getelementptr inbounds nuw %"struct.std::_Rb_tree_iterator.78", ptr %3, i32 0, i32 0
  %5 = load ptr, ptr %4, align 8, !tbaa !258
  %6 = call noundef ptr @_ZSt18_Rb_tree_incrementPSt18_Rb_tree_node_base(ptr noundef %5) #8
  %7 = getelementptr inbounds nuw %"struct.std::_Rb_tree_iterator.78", ptr %3, i32 0, i32 0
  store ptr %6, ptr %7, align 8, !tbaa !258
  ret ptr %3
}

; Function Attrs: mustprogress nounwind uwtable
define linkonce_odr dso_local noundef ptr @_ZNKSt17_Rb_tree_iteratorISt4pairIKPK9StatementbEEptEv(ptr noundef nonnull align 8 dereferenceable(8) %0) #4 comdat align 2 {
  %2 = alloca ptr, align 8
  store ptr %0, ptr %2, align 8, !tbaa !256
  %3 = load ptr, ptr %2, align 8
  %4 = getelementptr inbounds nuw %"struct.std::_Rb_tree_iterator.78", ptr %3, i32 0, i32 0
  %5 = load ptr, ptr %4, align 8, !tbaa !258
  %6 = call noundef ptr @_ZNSt13_Rb_tree_nodeISt4pairIKPK9StatementbEE9_M_valptrEv(ptr noundef nonnull align 8 dereferenceable(48) %5)
  ret ptr %6
}

; Function Attrs: mustprogress nounwind uwtable
define linkonce_odr dso_local noundef zeroext i1 @_ZStneRKSt17_Rb_tree_iteratorISt4pairIKPK9StatementbEES8_(ptr noundef nonnull align 8 dereferenceable(8) %0, ptr noundef nonnull align 8 dereferenceable(8) %1) #4 comdat {
  %3 = alloca ptr, align 8
  %4 = alloca ptr, align 8
  store ptr %0, ptr %3, align 8, !tbaa !256
  store ptr %1, ptr %4, align 8, !tbaa !256
  %5 = load ptr, ptr %3, align 8, !tbaa !256
  %6 = getelementptr inbounds nuw %"struct.std::_Rb_tree_iterator.78", ptr %5, i32 0, i32 0
  %7 = load ptr, ptr %6, align 8, !tbaa !258
  %8 = load ptr, ptr %4, align 8, !tbaa !256
  %9 = getelementptr inbounds nuw %"struct.std::_Rb_tree_iterator.78", ptr %8, i32 0, i32 0
  %10 = load ptr, ptr %9, align 8, !tbaa !258
  %11 = icmp ne ptr %7, %10
  ret i1 %11
}

; Function Attrs: mustprogress nounwind uwtable
define linkonce_odr dso_local ptr @_ZNSt3mapIPK9StatementbSt4lessIS2_ESaISt4pairIKS2_bEEE3endEv(ptr noundef nonnull align 8 dereferenceable(48) %0) #4 comdat align 2 {
  %2 = alloca %"struct.std::_Rb_tree_iterator.78", align 8
  %3 = alloca ptr, align 8
  store ptr %0, ptr %3, align 8, !tbaa !241
  %4 = load ptr, ptr %3, align 8
  %5 = getelementptr inbounds nuw %"class.std::map.18", ptr %4, i32 0, i32 0
  %6 = call ptr @_ZNSt8_Rb_treeIPK9StatementSt4pairIKS2_bESt10_Select1stIS5_ESt4lessIS2_ESaIS5_EE3endEv(ptr noundef nonnull align 8 dereferenceable(48) %5) #3
  %7 = getelementptr inbounds nuw %"struct.std::_Rb_tree_iterator.78", ptr %2, i32 0, i32 0
  store ptr %6, ptr %7, align 8
  %8 = getelementptr inbounds nuw %"struct.std::_Rb_tree_iterator.78", ptr %2, i32 0, i32 0
  %9 = load ptr, ptr %8, align 8
  ret ptr %9
}

; Function Attrs: mustprogress nounwind uwtable
define linkonce_odr dso_local ptr @_ZNSt3mapIPK9StatementbSt4lessIS2_ESaISt4pairIKS2_bEEE5beginEv(ptr noundef nonnull align 8 dereferenceable(48) %0) #4 comdat align 2 {
  %2 = alloca %"struct.std::_Rb_tree_iterator.78", align 8
  %3 = alloca ptr, align 8
  store ptr %0, ptr %3, align 8, !tbaa !241
  %4 = load ptr, ptr %3, align 8
  %5 = getelementptr inbounds nuw %"class.std::map.18", ptr %4, i32 0, i32 0
  %6 = call ptr @_ZNSt8_Rb_treeIPK9StatementSt4pairIKS2_bESt10_Select1stIS5_ESt4lessIS2_ESaIS5_EE5beginEv(ptr noundef nonnull align 8 dereferenceable(48) %5) #3
  %7 = getelementptr inbounds nuw %"struct.std::_Rb_tree_iterator.78", ptr %2, i32 0, i32 0
  store ptr %6, ptr %7, align 8
  %8 = getelementptr inbounds nuw %"struct.std::_Rb_tree_iterator.78", ptr %2, i32 0, i32 0
  %9 = load ptr, ptr %8, align 8
  ret ptr %9
}

; Function Attrs: mustprogress nounwind uwtable
define linkonce_odr dso_local void @_ZNSt17_Rb_tree_iteratorISt4pairIKPK9StatementbEEC2Ev(ptr noundef nonnull align 8 dereferenceable(8) %0) unnamed_addr #4 comdat align 2 {
  %2 = alloca ptr, align 8
  store ptr %0, ptr %2, align 8, !tbaa !256
  %3 = load ptr, ptr %2, align 8
  %4 = getelementptr inbounds nuw %"struct.std::_Rb_tree_iterator.78", ptr %3, i32 0, i32 0
  store ptr null, ptr %4, align 8, !tbaa !258
  ret void
}

; Function Attrs: mustprogress nounwind uwtable
define dso_local void @_ZN7FactMgr17clear_map_visitedEv(ptr noundef nonnull align 8 dereferenceable(392) %0) #4 align 2 {
  %2 = alloca ptr, align 8
  %3 = alloca %"struct.std::_Rb_tree_iterator.78", align 8
  %4 = alloca %"struct.std::_Rb_tree_iterator.78", align 8
  %5 = alloca %"struct.std::_Rb_tree_iterator.78", align 8
  store ptr %0, ptr %2, align 8, !tbaa !13
  %6 = load ptr, ptr %2, align 8
  call void @llvm.lifetime.start.p0(i64 8, ptr %3) #3
  call void @_ZNSt17_Rb_tree_iteratorISt4pairIKPK9StatementbEEC2Ev(ptr noundef nonnull align 8 dereferenceable(8) %3) #3
  call void @llvm.lifetime.start.p0(i64 8, ptr %4) #3
  %7 = getelementptr inbounds nuw %class.FactMgr, ptr %6, i32 0, i32 6
  %8 = call ptr @_ZNSt3mapIPK9StatementbSt4lessIS2_ESaISt4pairIKS2_bEEE5beginEv(ptr noundef nonnull align 8 dereferenceable(48) %7) #3
  %9 = getelementptr inbounds nuw %"struct.std::_Rb_tree_iterator.78", ptr %4, i32 0, i32 0
  store ptr %8, ptr %9, align 8
  call void @llvm.memcpy.p0.p0.i64(ptr align 8 %3, ptr align 8 %4, i64 8, i1 false), !tbaa.struct !23
  call void @llvm.lifetime.end.p0(i64 8, ptr %4) #3
  br label %10

10:                                               ; preds = %18, %1
  call void @llvm.lifetime.start.p0(i64 8, ptr %5) #3
  %11 = getelementptr inbounds nuw %class.FactMgr, ptr %6, i32 0, i32 6
  %12 = call ptr @_ZNSt3mapIPK9StatementbSt4lessIS2_ESaISt4pairIKS2_bEEE3endEv(ptr noundef nonnull align 8 dereferenceable(48) %11) #3
  %13 = getelementptr inbounds nuw %"struct.std::_Rb_tree_iterator.78", ptr %5, i32 0, i32 0
  store ptr %12, ptr %13, align 8
  %14 = call noundef zeroext i1 @_ZStneRKSt17_Rb_tree_iteratorISt4pairIKPK9StatementbEES8_(ptr noundef nonnull align 8 dereferenceable(8) %3, ptr noundef nonnull align 8 dereferenceable(8) %5) #3
  call void @llvm.lifetime.end.p0(i64 8, ptr %5) #3
  br i1 %14, label %15, label %20

15:                                               ; preds = %10
  %16 = call noundef ptr @_ZNKSt17_Rb_tree_iteratorISt4pairIKPK9StatementbEEptEv(ptr noundef nonnull align 8 dereferenceable(8) %3) #3
  %17 = getelementptr inbounds nuw %"struct.std::pair.79", ptr %16, i32 0, i32 1
  store i8 0, ptr %17, align 8, !tbaa !253
  br label %18

18:                                               ; preds = %15
  %19 = call noundef nonnull align 8 dereferenceable(8) ptr @_ZNSt17_Rb_tree_iteratorISt4pairIKPK9StatementbEEppEv(ptr noundef nonnull align 8 dereferenceable(8) %3) #3
  br label %10, !llvm.loop !255

20:                                               ; preds = %10
  call void @llvm.lifetime.end.p0(i64 8, ptr %3) #3
  ret void
}