; Function Attrs: mustprogress nofree nounwind memory(readwrite, inaccessiblemem: read) uwtable
define dso_local void @_ZN7FactMgr17clear_map_visitedEv(ptr noundef nonnull readonly align 8 captures(address) dereferenceable(392) %0) local_unnamed_addr #9 align 2 {
  %2 = getelementptr inbounds nuw i8, ptr %0, i64 312
  %3 = load ptr, ptr %2, align 8, !tbaa !20
  %4 = getelementptr inbounds nuw i8, ptr %0, i64 296
  %.not4 = icmp eq ptr %3, %4
  br i1 %.not4, label %._crit_edge, label %.lr.ph

.lr.ph:                                           ; preds = %1, %.lr.ph
  %.sroa.01.05 = phi ptr [ %6, %.lr.ph ], [ %3, %1 ]
  %5 = getelementptr inbounds nuw i8, ptr %.sroa.01.05, i64 40
  store i8 0, ptr %5, align 8, !tbaa !196
  %6 = tail call noundef ptr @_ZSt18_Rb_tree_incrementPSt18_Rb_tree_node_base(ptr noundef %.sroa.01.05) #25
  %.not = icmp eq ptr %6, %4
  br i1 %.not, label %._crit_edge, label %.lr.ph, !llvm.loop !198

._crit_edge:                                      ; preds = %.lr.ph, %1
  ret void
}